; Function Attrs: mustprogress uwtable
define internal noundef zeroext i1 @_ZN32pxrInternal_v0_24__pxrReserved__L16_IsFloatOrDoubleERKNS_7VtValueE(ptr noundef nonnull align 8 dereferenceable(16) %0) #0 personality ptr @__gxx_personality_v0 {
  %2 = getelementptr inbounds nuw i8, ptr %0, i64 8
  %3 = load ptr, ptr %2, align 8
  %4 = ptrtoint ptr %3 to i64
  %.not.i = icmp eq ptr %3, null
  br i1 %.not.i, label %_ZNK32pxrInternal_v0_24__pxrReserved__7VtValue9IsHoldingIdEEbv.exit, label %5

5:                                                ; preds = %1
  %6 = and i64 %4, -8
  %7 = inttoptr i64 %6 to ptr
  %8 = getelementptr inbounds nuw i8, ptr %7, i64 16
  %9 = load i32, ptr %8, align 8
  %10 = icmp eq i32 %9, 10
  br i1 %10, label %_ZNK32pxrInternal_v0_24__pxrReserved__7VtValue9IsHoldingIdEEbv.exit, label %11

11:                                               ; preds = %5
  %12 = and i64 %4, 4
  %.not.i.i = icmp eq i64 %12, 0
  br i1 %.not.i.i, label %_ZNK32pxrInternal_v0_24__pxrReserved__7VtValue9IsHoldingIfEEbv.exit.thread.thread, label %_ZNK32pxrInternal_v0_24__pxrReserved__7VtValue9IsHoldingIfEEbv.exit

_ZNK32pxrInternal_v0_24__pxrReserved__7VtValue9IsHoldingIfEEbv.exit: ; preds = %11
  %13 = tail call noundef zeroext i1 @_ZNK32pxrInternal_v0_24__pxrReserved__7VtValue11_TypeIsImplERKSt9type_info(ptr noundef nonnull align 8 dereferenceable(16) %0, ptr noundef nonnull align 8 dereferenceable(16) @_ZTIf)
  br i1 %13, label %_ZNK32pxrInternal_v0_24__pxrReserved__7VtValue9IsHoldingIdEEbv.exit, label %_ZNK32pxrInternal_v0_24__pxrReserved__7VtValue9IsHoldingIfEEbv.exit.thread

_ZNK32pxrInternal_v0_24__pxrReserved__7VtValue9IsHoldingIfEEbv.exit.thread: ; preds = %_ZNK32pxrInternal_v0_24__pxrReserved__7VtValue9IsHoldingIfEEbv.exit
  %.pr.pre = load ptr, ptr %2, align 8
  %.pre = ptrtoint ptr %.pr.pre to i64
  %14 = icmp eq ptr %.pr.pre, null
  br i1 %14, label %_ZNK32pxrInternal_v0_24__pxrReserved__7VtValue9IsHoldingIdEEbv.exit, label %_ZNK32pxrInternal_v0_24__pxrReserved__7VtValue9IsHoldingIfEEbv.exit.thread.thread

_ZNK32pxrInternal_v0_24__pxrReserved__7VtValue9IsHoldingIfEEbv.exit.thread.thread: ; preds = %11, %_ZNK32pxrInternal_v0_24__pxrReserved__7VtValue9IsHoldingIfEEbv.exit.thread
  %.pre-phi9 = phi i64 [ %.pre, %_ZNK32pxrInternal_v0_24__pxrReserved__7VtValue9IsHoldingIfEEbv.exit.thread ], [ %4, %11 ]
  %15 = and i64 %.pre-phi9, -8
  %16 = inttoptr i64 %15 to ptr
  %17 = getelementptr inbounds nuw i8, ptr %16, i64 16
  %18 = load i32, ptr %17, align 8
  %19 = icmp eq i32 %18, 9
  br i1 %19, label %_ZNK32pxrInternal_v0_24__pxrReserved__7VtValue9IsHoldingIdEEbv.exit, label %20

20:                                               ; preds = %_ZNK32pxrInternal_v0_24__pxrReserved__7VtValue9IsHoldingIfEEbv.exit.thread.thread
  %21 = and i64 %.pre-phi9, 4
  %.not.i.i3 = icmp eq i64 %21, 0
  br i1 %.not.i.i3, label %_ZNK32pxrInternal_v0_24__pxrReserved__7VtValue9IsHoldingIdEEbv.exit, label %22

22:                                               ; preds = %20
  %23 = tail call noundef zeroext i1 @_ZNK32pxrInternal_v0_24__pxrReserved__7VtValue11_TypeIsImplERKSt9type_info(ptr noundef nonnull align 8 dereferenceable(16) %0, ptr noundef nonnull align 8 dereferenceable(16) @_ZTId)
  br label %_ZNK32pxrInternal_v0_24__pxrReserved__7VtValue9IsHoldingIdEEbv.exit

_ZNK32pxrInternal_v0_24__pxrReserved__7VtValue9IsHoldingIdEEbv.exit: ; preds = %1, %5, %22, %20, %_ZNK32pxrInternal_v0_24__pxrReserved__7VtValue9IsHoldingIfEEbv.exit.thread.thread, %_ZNK32pxrInternal_v0_24__pxrReserved__7VtValue9IsHoldingIfEEbv.exit.thread, %_ZNK32pxrInternal_v0_24__pxrReserved__7VtValue9IsHoldingIfEEbv.exit
  %24 = phi i1 [ true, %_ZNK32pxrInternal_v0_24__pxrReserved__7VtValue9IsHoldingIfEEbv.exit ], [ false, %_ZNK32pxrInternal_v0_24__pxrReserved__7VtValue9IsHoldingIfEEbv.exit.thread ], [ true, %_ZNK32pxrInternal_v0_24__pxrReserved__7VtValue9IsHoldingIfEEbv.exit.thread.thread ], [ false, %20 ], [ %23, %22 ], [ true, %5 ], [ false, %1 ]
  ret i1 %24
}